; Function Attrs: nounwind uwtable
define void @dt_bauhaus_slider_set_log_curve(ptr noundef %0) local_unnamed_addr #0 {
  %2 = load atomic i64, ptr @dt_bh_get_type.static_g_define_type_id seq_cst, align 8
  %.not.i.i.i = icmp eq i64 %2, 0
  br i1 %.not.i.i.i, label %3, label %DT_BAUHAUS_WIDGET.exit.i

3:                                                ; preds = %1
  %4 = tail call i32 @g_once_init_enter(ptr noundef nonnull @dt_bh_get_type.static_g_define_type_id) #19
  %.not4.i.i.i = icmp eq i32 %4, 0
  br i1 %.not4.i.i.i, label %DT_BAUHAUS_WIDGET.exit.i, label %5

5:                                                ; preds = %3
  %6 = tail call fastcc i64 @dt_bh_get_type_once()
  tail call void @g_once_init_leave(ptr noundef nonnull @dt_bh_get_type.static_g_define_type_id, i64 noundef %6) #19
  br label %DT_BAUHAUS_WIDGET.exit.i

DT_BAUHAUS_WIDGET.exit.i:                         ; preds = %5, %3, %1
  %7 = load i64, ptr @dt_bh_get_type.static_g_define_type_id, align 8, !tbaa !6
  %8 = tail call ptr @g_type_check_instance_cast(ptr noundef %0, i64 noundef %7) #19
  %9 = getelementptr inbounds nuw i8, ptr %8, i64 40
  %10 = load i32, ptr %9, align 8, !tbaa !105
  %.not.i = icmp eq i32 %10, 1
  br i1 %.not.i, label %11, label %dt_bauhaus_slider_set_curve.exit

11:                                               ; preds = %DT_BAUHAUS_WIDGET.exit.i
  %12 = getelementptr inbounds nuw i8, ptr %8, i64 408
  %13 = getelementptr inbounds nuw i8, ptr %8, i64 512
  %14 = load ptr, ptr %13, align 8, !tbaa !142
  %15 = load float, ptr %12, align 8, !tbaa !143
  %16 = tail call reassoc nsz arcp contract afn float %14(float noundef %15, i32 noundef 2) #19
  %17 = fmul reassoc nsz arcp contract afn float %16, 9.990000e+02
  %18 = fadd reassoc nsz arcp contract afn float %17, 1.000000e+00
  %19 = tail call reassoc nsz arcp contract afn float @llvm.log10.f32(float %18)
  %20 = fmul reassoc nsz arcp contract afn float %19, 0x3FD5555560000000
  store float %20, ptr %12, align 8, !tbaa !143
  store ptr @_curve_log10, ptr %13, align 8, !tbaa !142
  br label %dt_bauhaus_slider_set_curve.exit

dt_bauhaus_slider_set_curve.exit:                 ; preds = %DT_BAUHAUS_WIDGET.exit.i, %11
  ret void
}